V#makemeup-wrap{background-image:url('https://s3-us-west-2.amazonaws.com/images.makemeup.co/images/secret2_grande');background-size:75%;background-repeat:no-repeat;background-position:center top}#makemeup-wrap .center_login_section{margin:30px}#makemeup-wrap .login{margin:0 auto}#makemeup-wrap h3{color:#666}
p1
.