V#makemeup-wrap .center_login_section{margin:30px;background-image:url('https://s3-us-west-2.amazonaws.com/images.makemeup.co/images/secret2-2_grande');background-size:cover;background-repeat:no-repeat}#makemeup-wrap .login{margin:0 auto}#makemeup-wrap h3{color:#666}
p1
.