V#makemeup-wrap .file{border:1px solid #eaeaea}#makemeup-wrap .file .file-header{padding:10px;border-bottom:1px solid #eaeaea;height:55px;width:100%;display:block}#makemeup-wrap .file .file-header input.name{width:300px}#makemeup-wrap .file .file-body{overflow:scroll;white-space:pre-line;padding:10px}#makemeup-wrap .add-file{padding:10px}#makemeup-wrap .add-file input{margin-bottom:10px}
p1
.