V#makemeup-wrap .center_login_section{background-image:url('https://s3-us-west-2.amazonaws.com/images.makemeup.co/images/secret2_grande');background-size:cover;background-repeat:no-repeat;margin:30px}#makemeup-wrap .login{margin:0 auto}#makemeup-wrap h3{color:#666}
p1
.